target datalayout = "e-m:e-p270:32:32-p271:32:32-p272:64:64-i64:64-i128:128-f80:128-n8:16:32:64-S128"
target triple = "x86_64-pc-linux-gnu"

%struct._generic_N_Vector = type { ptr, ptr, ptr }
%struct._N_VectorContent_Serial = type { i64, i32, ptr }

; Function Attrs: nounwind uwtable
define internal i32 @ewt(ptr noundef %0, ptr noundef %1, ptr noundef %2) #0 {
  %4 = alloca i32, align 4
  %5 = alloca ptr, align 8
  %6 = alloca ptr, align 8
  %7 = alloca ptr, align 8
  %8 = alloca i32, align 4
  %9 = alloca double, align 8
  %10 = alloca double, align 8
  %11 = alloca double, align 8
  %12 = alloca [3 x double], align 16
  %13 = alloca i32, align 4
  store ptr %0, ptr %5, align 8, !tbaa !16
  store ptr %1, ptr %6, align 8, !tbaa !16
  store ptr %2, ptr %7, align 8, !tbaa !11
  call void @llvm.lifetime.start.p0(i64 4, ptr %8) #6
  call void @llvm.lifetime.start.p0(i64 8, ptr %9) #6
  call void @llvm.lifetime.start.p0(i64 8, ptr %10) #6
  call void @llvm.lifetime.start.p0(i64 8, ptr %11) #6
  call void @llvm.lifetime.start.p0(i64 24, ptr %12) #6
  store double 0x3EB0C6F7A0B5ED8D, ptr %11, align 8, !tbaa !18
  %14 = getelementptr inbounds [3 x double], ptr %12, i64 0, i64 0
  store double 1.000000e-08, ptr %14, align 16, !tbaa !18
  %15 = getelementptr inbounds [3 x double], ptr %12, i64 0, i64 1
  store double 0x3D719799812DEA11, ptr %15, align 8, !tbaa !18
  %16 = getelementptr inbounds [3 x double], ptr %12, i64 0, i64 2
  store double 1.000000e-08, ptr %16, align 16, !tbaa !18
  store i32 1, ptr %8, align 4, !tbaa !4
  br label %17

17:                                               ; preds = %55, %3
  %18 = load i32, ptr %8, align 4, !tbaa !4
  %19 = icmp sle i32 %18, 3
  br i1 %19, label %20, label %58

20:                                               ; preds = %17
  %21 = load ptr, ptr %5, align 8, !tbaa !16
  %22 = getelementptr inbounds nuw %struct._generic_N_Vector, ptr %21, i32 0, i32 0
  %23 = load ptr, ptr %22, align 8, !tbaa !22
  %24 = getelementptr inbounds nuw %struct._N_VectorContent_Serial, ptr %23, i32 0, i32 2
  %25 = load ptr, ptr %24, align 8, !tbaa !25
  %26 = load i32, ptr %8, align 4, !tbaa !4
  %27 = sub nsw i32 %26, 1
  %28 = sext i32 %27 to i64
  %29 = getelementptr inbounds double, ptr %25, i64 %28
  %30 = load double, ptr %29, align 8, !tbaa !18
  store double %30, ptr %9, align 8, !tbaa !18
  %31 = load double, ptr %11, align 8, !tbaa !18
  %32 = load double, ptr %9, align 8, !tbaa !18
  %33 = call double @llvm.fabs.f64(double %32)
  %34 = load i32, ptr %8, align 4, !tbaa !4
  %35 = sub nsw i32 %34, 1
  %36 = sext i32 %35 to i64
  %37 = getelementptr inbounds [3 x double], ptr %12, i64 0, i64 %36
  %38 = load double, ptr %37, align 8, !tbaa !18
  %39 = call double @llvm.fmuladd.f64(double %31, double %33, double %38)
  store double %39, ptr %10, align 8, !tbaa !18
  %40 = load double, ptr %10, align 8, !tbaa !18
  %41 = fcmp ole double %40, 0.000000e+00
  br i1 %41, label %42, label %43

42:                                               ; preds = %20
  store i32 -1, ptr %4, align 4
  store i32 1, ptr %13, align 4
  br label %59

43:                                               ; preds = %20
  %44 = load double, ptr %10, align 8, !tbaa !18
  %45 = fdiv double 1.000000e+00, %44
  %46 = load ptr, ptr %6, align 8, !tbaa !16
  %47 = getelementptr inbounds nuw %struct._generic_N_Vector, ptr %46, i32 0, i32 0
  %48 = load ptr, ptr %47, align 8, !tbaa !22
  %49 = getelementptr inbounds nuw %struct._N_VectorContent_Serial, ptr %48, i32 0, i32 2
  %50 = load ptr, ptr %49, align 8, !tbaa !25
  %51 = load i32, ptr %8, align 4, !tbaa !4
  %52 = sub nsw i32 %51, 1
  %53 = sext i32 %52 to i64
  %54 = getelementptr inbounds double, ptr %50, i64 %53
  store double %45, ptr %54, align 8, !tbaa !18
  br label %55

55:                                               ; preds = %43
  %56 = load i32, ptr %8, align 4, !tbaa !4
  %57 = add nsw i32 %56, 1
  store i32 %57, ptr %8, align 4, !tbaa !4
  br label %17

58:                                               ; preds = %17
  store i32 0, ptr %4, align 4
  store i32 1, ptr %13, align 4
  br label %59

59:                                               ; preds = %58, %42
  call void @llvm.lifetime.end.p0(i64 24, ptr %12) #6
  call void @llvm.lifetime.end.p0(i64 8, ptr %11) #6
  call void @llvm.lifetime.end.p0(i64 8, ptr %10) #6
  call void @llvm.lifetime.end.p0(i64 8, ptr %9) #6
  call void @llvm.lifetime.end.p0(i64 4, ptr %8) #6
  %60 = load i32, ptr %4, align 4
  ret i32 %60
}