; Function Attrs: nofree norecurse nosync nounwind memory(readwrite, inaccessiblemem: none) uwtable
define internal range(i32 -1, 1) i32 @ewt(ptr noundef readonly captures(none) %0, ptr noundef readonly captures(none) %1, ptr readnone captures(none) %2) #5 {
  %4 = alloca [3 x double], align 16
  call void @llvm.lifetime.start.p0(i64 24, ptr nonnull %4) #12
  store double 1.000000e-08, ptr %4, align 16, !tbaa !9
  %5 = getelementptr inbounds nuw i8, ptr %4, i64 8
  store double 0x3D719799812DEA11, ptr %5, align 8, !tbaa !9
  %6 = getelementptr inbounds nuw i8, ptr %4, i64 16
  store double 1.000000e-08, ptr %6, align 16, !tbaa !9
  %7 = load ptr, ptr %0, align 8, !tbaa !13
  %8 = getelementptr inbounds nuw i8, ptr %7, i64 16
  %9 = load ptr, ptr %8, align 8, !tbaa !16
  br label %10

10:                                               ; preds = %3, %19
  %indvars.iv = phi i64 [ 1, %3 ], [ %indvars.iv.next, %19 ]
  %11 = add nsw i64 %indvars.iv, -1
  %12 = getelementptr inbounds double, ptr %9, i64 %11
  %13 = load double, ptr %12, align 8, !tbaa !9
  %14 = tail call double @llvm.fabs.f64(double %13)
  %15 = getelementptr inbounds [3 x double], ptr %4, i64 0, i64 %11
  %16 = load double, ptr %15, align 8, !tbaa !9
  %17 = tail call double @llvm.fmuladd.f64(double %14, double 0x3EB0C6F7A0B5ED8D, double %16)
  %18 = fcmp ugt double %17, 0.000000e+00
  br i1 %18, label %19, label %25

19:                                               ; preds = %10
  %20 = fdiv double 1.000000e+00, %17
  %21 = load ptr, ptr %1, align 8, !tbaa !13
  %22 = getelementptr inbounds nuw i8, ptr %21, i64 16
  %23 = load ptr, ptr %22, align 8, !tbaa !16
  %24 = getelementptr inbounds double, ptr %23, i64 %11
  store double %20, ptr %24, align 8, !tbaa !9
  %indvars.iv.next = add nuw nsw i64 %indvars.iv, 1
  %exitcond.not = icmp eq i64 %indvars.iv.next, 4
  br i1 %exitcond.not, label %25, label %10

25:                                               ; preds = %19, %10
  %.0 = phi i32 [ -1, %10 ], [ 0, %19 ]
  call void @llvm.lifetime.end.p0(i64 24, ptr nonnull %4) #12
  ret i32 %.0
}